; Function Attrs: mustprogress nofree norecurse nosync nounwind willreturn memory(read, inaccessiblemem: none) uwtable
define hidden noundef zeroext i1 @_ZN12StringConcat17validate_mem_flowEv(ptr nocapture noundef nonnull readonly align 8 dereferenceable(160) %0) local_unnamed_addr #2 align 2 {
  %2 = getelementptr inbounds i8, ptr %0, i64 120
  %3 = load i32, ptr %2, align 8
  %4 = icmp eq i32 %3, 0
  br i1 %4, label %.loopexit38, label %.lr.ph63

.lr.ph63:                                         ; preds = %1
  %5 = load ptr, ptr %0, align 8
  %6 = getelementptr inbounds i8, ptr %5, i64 8
  %7 = load ptr, ptr %6, align 8
  %8 = getelementptr inbounds i8, ptr %0, i64 112
  %9 = load ptr, ptr %8, align 8
  %10 = getelementptr inbounds i8, ptr %0, i64 8
  %11 = load ptr, ptr %10, align 8
  %12 = getelementptr inbounds i8, ptr %0, i64 88
  %13 = load i32, ptr %12, align 8
  %.not.i = icmp eq i32 %13, 0
  %14 = getelementptr inbounds i8, ptr %0, i64 80
  %15 = load ptr, ptr %14, align 8
  %16 = zext i32 %13 to i64
  %17 = getelementptr inbounds i8, ptr %7, i64 744
  %18 = zext i32 %3 to i64
  br label %19

19:                                               ; preds = %.lr.ph63, %.critedge
  %indvars.iv79 = phi i64 [ 0, %.lr.ph63 ], [ %indvars.iv.next80, %.critedge ]
  %20 = phi i1 [ false, %.lr.ph63 ], [ %71, %.critedge ]
  %21 = getelementptr inbounds ptr, ptr %9, i64 %indvars.iv79
  %22 = load ptr, ptr %21, align 8
  %23 = getelementptr inbounds i8, ptr %22, i64 44
  %24 = load i32, ptr %23, align 4
  %25 = and i32 %24, 7
  %26 = icmp ne i32 %25, 7
  %.not = icmp eq ptr %22, %11
  %or.cond = select i1 %26, i1 true, i1 %.not
  br i1 %or.cond, label %.critedge, label %27

27:                                               ; preds = %19
  br i1 %.not.i, label %_ZNK9Node_List8containsEPK4Node.exit.thread, label %.lr.ph.i

.lr.ph.i:                                         ; preds = %27
  %28 = load ptr, ptr %15, align 8
  %29 = icmp eq ptr %28, %22
  br i1 %29, label %.critedge, label %.lr.ph

.lr.ph:                                           ; preds = %.lr.ph.i, %30
  %indvars.iv.i44 = phi i64 [ %indvars.iv.next.i, %30 ], [ 0, %.lr.ph.i ]
  %indvars.iv.next.i = add nuw nsw i64 %indvars.iv.i44, 1
  %exitcond.not.i = icmp eq i64 %indvars.iv.next.i, %16
  br i1 %exitcond.not.i, label %_ZNK9Node_List8containsEPK4Node.exit, label %30, !llvm.loop !30

30:                                               ; preds = %.lr.ph
  %31 = getelementptr inbounds ptr, ptr %15, i64 %indvars.iv.next.i
  %32 = load ptr, ptr %31, align 8
  %33 = icmp eq ptr %32, %22
  br i1 %33, label %_ZNK9Node_List8containsEPK4Node.exit, label %.lr.ph, !llvm.loop !30

_ZNK9Node_List8containsEPK4Node.exit:             ; preds = %30, %.lr.ph
  %34 = icmp ult i64 %indvars.iv.next.i, %16
  br i1 %34, label %.critedge, label %_ZNK9Node_List8containsEPK4Node.exit.thread

_ZNK9Node_List8containsEPK4Node.exit.thread:      ; preds = %27, %_ZNK9Node_List8containsEPK4Node.exit
  %.pn.in49 = getelementptr inbounds i8, ptr %22, i64 8
  %.pn50 = load ptr, ptr %.pn.in49, align 8
  %.022.in51 = getelementptr inbounds i8, ptr %.pn50, i64 16
  %.02252 = load ptr, ptr %.022.in51, align 8
  %35 = getelementptr inbounds i8, ptr %.02252, i64 44
  %36 = load i32, ptr %35, align 4
  %37 = and i32 %36, 255
  %38 = icmp eq i32 %37, 128
  br i1 %38, label %.preheader, label %._crit_edge

.loopexit:                                        ; preds = %53, %.preheader
  %.pn.in = getelementptr inbounds i8, ptr %.02253, i64 8
  %.pn = load ptr, ptr %.pn.in, align 8
  %.022.in = getelementptr inbounds i8, ptr %.pn, i64 16
  %.022 = load ptr, ptr %.022.in, align 8
  %39 = getelementptr inbounds i8, ptr %.022, i64 44
  %40 = load i32, ptr %39, align 4
  %41 = and i32 %40, 255
  %42 = icmp eq i32 %41, 128
  br i1 %42, label %.preheader, label %._crit_edge, !llvm.loop !31

.preheader:                                       ; preds = %_ZNK9Node_List8containsEPK4Node.exit.thread, %.loopexit
  %.02253 = phi ptr [ %.022, %.loopexit ], [ %.02252, %_ZNK9Node_List8containsEPK4Node.exit.thread ]
  %43 = getelementptr inbounds i8, ptr %.02253, i64 24
  %44 = load i32, ptr %43, align 8
  %45 = icmp ugt i32 %44, 1
  br i1 %45, label %.lr.ph48, label %.loopexit

.lr.ph48:                                         ; preds = %.preheader
  %46 = getelementptr inbounds i8, ptr %.02253, i64 8
  %wide.trip.count = zext i32 %44 to i64
  br label %47

47:                                               ; preds = %.lr.ph48, %53
  %indvars.iv = phi i64 [ 1, %.lr.ph48 ], [ %indvars.iv.next, %53 ]
  %.not25 = icmp eq i64 %indvars.iv, 2
  br i1 %.not25, label %53, label %48

48:                                               ; preds = %47
  %49 = load ptr, ptr %46, align 8
  %50 = getelementptr inbounds ptr, ptr %49, i64 %indvars.iv
  %51 = load ptr, ptr %50, align 8
  %52 = load ptr, ptr %17, align 8
  %.not26 = icmp eq ptr %51, %52
  br i1 %.not26, label %53, label %.loopexit38

53:                                               ; preds = %47, %48
  %indvars.iv.next = add nuw nsw i64 %indvars.iv, 1
  %exitcond.not = icmp eq i64 %indvars.iv.next, %wide.trip.count
  br i1 %exitcond.not, label %.loopexit, label %47, !llvm.loop !32

._crit_edge:                                      ; preds = %.loopexit, %_ZNK9Node_List8containsEPK4Node.exit.thread
  %.022.lcssa = phi ptr [ %.02252, %_ZNK9Node_List8containsEPK4Node.exit.thread ], [ %.022, %.loopexit ]
  %.lcssa = phi i32 [ %36, %_ZNK9Node_List8containsEPK4Node.exit.thread ], [ %40, %.loopexit ]
  %54 = and i32 %.lcssa, 15
  %55 = icmp eq i32 %54, 8
  br i1 %55, label %56, label %.loopexit38

56:                                               ; preds = %._crit_edge
  %57 = getelementptr inbounds i8, ptr %.022.lcssa, i64 8
  %58 = load ptr, ptr %57, align 8
  %59 = load ptr, ptr %58, align 8
  %60 = getelementptr inbounds i8, ptr %59, i64 44
  %61 = load i32, ptr %60, align 4
  %62 = and i32 %61, 7
  %63 = icmp eq i32 %62, 7
  br i1 %63, label %.lr.ph.i30, label %.loopexit38

.lr.ph.i30:                                       ; preds = %56
  %64 = load ptr, ptr %9, align 8
  %65 = icmp eq ptr %64, %59
  br i1 %65, label %.critedge, label %.lr.ph57

.lr.ph57:                                         ; preds = %.lr.ph.i30, %66
  %indvars.iv.i3156 = phi i64 [ %indvars.iv.next.i32, %66 ], [ 0, %.lr.ph.i30 ]
  %indvars.iv.next.i32 = add nuw nsw i64 %indvars.iv.i3156, 1
  %exitcond.not.i33 = icmp eq i64 %indvars.iv.next.i32, %18
  br i1 %exitcond.not.i33, label %_ZNK9Node_List8containsEPK4Node.exit35, label %66, !llvm.loop !30

66:                                               ; preds = %.lr.ph57
  %67 = getelementptr inbounds ptr, ptr %9, i64 %indvars.iv.next.i32
  %68 = load ptr, ptr %67, align 8
  %69 = icmp eq ptr %68, %59
  br i1 %69, label %_ZNK9Node_List8containsEPK4Node.exit35, label %.lr.ph57, !llvm.loop !30

_ZNK9Node_List8containsEPK4Node.exit35:           ; preds = %66, %.lr.ph57
  %70 = icmp ult i64 %indvars.iv.next.i32, %18
  br i1 %70, label %.critedge, label %.loopexit38

.critedge:                                        ; preds = %.lr.ph.i30, %.lr.ph.i, %19, %_ZNK9Node_List8containsEPK4Node.exit, %_ZNK9Node_List8containsEPK4Node.exit35
  %indvars.iv.next80 = add nuw nsw i64 %indvars.iv79, 1
  %71 = icmp uge i64 %indvars.iv.next80, %18
  %exitcond82 = icmp eq i64 %indvars.iv.next80, %18
  br i1 %exitcond82, label %.loopexit38, label %19, !llvm.loop !33

.loopexit38:                                      ; preds = %_ZNK9Node_List8containsEPK4Node.exit35, %56, %._crit_edge, %.critedge, %48, %1
  %72 = phi i1 [ true, %1 ], [ %20, %48 ], [ %20, %_ZNK9Node_List8containsEPK4Node.exit35 ], [ %20, %56 ], [ %20, %._crit_edge ], [ %71, %.critedge ]
  ret i1 %72
}